; ModuleID = 'bench/linux/original/poll_state.ll'
source_filename = "bench/linux/original/poll_state.ll"
target datalayout = "e-m:e-p270:32:32-p271:32:32-p272:64:64-i64:64-i128:128-f80:128-n8:16:32:64-S128"
target triple = "x86_64-unknown-linux-gnu"

module asm ".section \22.export_symbol\22,\22a\22 ; __export_symbol_cpuidle_poll_state_init: ; .asciz \22GPL\22 ; .asciz \22\22 ; .balign 8 ; .quad cpuidle_poll_state_init ; .previous"

%struct.pcpu_hot = type { %union.anon.13 }
%union.anon.13 = type { %struct.anon.14, [16 x i8] }
%struct.anon.14 = type { ptr, i32, i32, i64, i64, ptr, i16, i8 }

@.str = private unnamed_addr constant [5 x i8] c"POLL\00", align 1
@.str.1 = private unnamed_addr constant [23 x i8] c"CPUIDLE CORE POLL IDLE\00", align 1
@__UNIQUE_ID___addressable_cpuidle_poll_state_init100 = internal global ptr @cpuidle_poll_state_init, section ".discard.addressable", align 8
@pcpu_hot = external dso_local global %struct.pcpu_hot, section ".data..percpu..shared_aligned", align 64
@llvm.compiler.used = appending global [1 x ptr] [ptr @__UNIQUE_ID___addressable_cpuidle_poll_state_init100], section "llvm.metadata"

; Function Attrs: fn_ret_thunk_extern mustprogress nofree norecurse nosync nounwind null_pointer_is_valid willreturn memory(argmem: readwrite)
define dso_local void @cpuidle_poll_state_init(ptr nocapture noundef writeonly %0) #0 align 16 {
  %2 = getelementptr inbounds i8, ptr %0, i64 24
  tail call void @llvm.memcpy.p0.p0.i64(ptr noundef align 1 dereferenceable(5) %2, ptr noundef nonnull align 1 dereferenceable(5) @.str, i64 5, i1 false)
  %3 = getelementptr inbounds i8, ptr %0, i64 40
  tail call void @llvm.memcpy.p0.p0.i64(ptr noundef align 1 dereferenceable(23) %3, ptr noundef nonnull align 1 dereferenceable(23) @.str.1, i64 23, i1 false)
  %4 = getelementptr inbounds i8, ptr %0, i64 92
  store i32 0, ptr %4, align 4
  %5 = getelementptr inbounds i8, ptr %0, i64 100
  store i32 0, ptr %5, align 4
  %6 = getelementptr inbounds i8, ptr %0, i64 72
  %7 = getelementptr inbounds i8, ptr %0, i64 96
  tail call void @llvm.memset.p0.i64(ptr noundef align 8 dereferenceable(16) %6, i8 0, i64 16, i1 false)
  store i32 -1, ptr %7, align 8
  %8 = getelementptr inbounds i8, ptr %0, i64 104
  store ptr @poll_idle, ptr %8, align 8
  %9 = getelementptr inbounds i8, ptr %0, i64 88
  store i32 1, ptr %9, align 8
  ret void
}

; Function Attrs: fn_ret_thunk_extern noprofile nounwind null_pointer_is_valid
define internal noundef i32 @poll_idle(ptr noundef %0, ptr noundef %1, i32 noundef returned %2) #1 section ".cpuidle.text" align 16 {
  %4 = tail call i64 @local_clock_noinstr() #5
  %5 = load i8, ptr %0, align 8
  %6 = and i8 %5, -5
  store i8 %6, ptr %0, align 8
  tail call void asm sideeffect "sti", "~{memory},~{dirflag},~{fpsr},~{flags}"() #5, !srcloc !5
  %7 = tail call i64 asm "movq %gs:${1:P}, $0", "=r,p,~{dirflag},~{fpsr},~{flags}"(ptr nonnull @pcpu_hot) #6, !srcloc !6
  %8 = inttoptr i64 %7 to ptr
  %9 = getelementptr i8, ptr %8, i64 2
  tail call void asm sideeffect ".pushsection .smp_locks,\22a\22\0A.balign 4\0A.long 671f - .\0A.popsection\0A671:\0A\09lock; orb ${1:b},$0", "=*m,iq,*m,~{memory},~{dirflag},~{fpsr},~{flags}"(ptr elementtype(i8) %9, i32 32, ptr elementtype(i8) %9) #5, !srcloc !7
  %10 = load volatile i64, ptr %8, align 8
  %11 = and i64 %10, 8
  %12 = icmp eq i64 %11, 0
  br i1 %12, label %13, label %.loopexit

13:                                               ; preds = %3
  %14 = tail call i64 @cpuidle_poll_time(ptr noundef %1, ptr noundef %0) #5
  %15 = load volatile i64, ptr %8, align 8
  %16 = and i64 %15, 8
  %17 = icmp eq i64 %16, 0
  br i1 %17, label %.preheader, label %.loopexit

.preheader:                                       ; preds = %13, %21
  %18 = phi i32 [ %22, %21 ], [ 0, %13 ]
  tail call void asm sideeffect "rep; nop", "~{memory},~{dirflag},~{fpsr},~{flags}"() #5, !srcloc !8
  %19 = add i32 %18, 1
  %20 = icmp ult i32 %18, 200
  br i1 %20, label %21, label %26

21:                                               ; preds = %26, %.preheader
  %22 = phi i32 [ %19, %.preheader ], [ 0, %26 ]
  %23 = load volatile i64, ptr %8, align 8
  %24 = and i64 %23, 8
  %25 = icmp eq i64 %24, 0
  br i1 %25, label %.preheader, label %.loopexit, !llvm.loop !9

26:                                               ; preds = %.preheader
  %27 = tail call i64 @local_clock_noinstr() #5
  %28 = sub i64 %27, %4
  %29 = icmp ugt i64 %28, %14
  br i1 %29, label %30, label %21

30:                                               ; preds = %26
  %31 = load i8, ptr %0, align 8
  %32 = or i8 %31, 4
  store i8 %32, ptr %0, align 8
  br label %.loopexit

.loopexit:                                        ; preds = %21, %30, %13, %3
  tail call void asm sideeffect "cli", "~{memory},~{dirflag},~{fpsr},~{flags}"() #5, !srcloc !12
  tail call void asm sideeffect ".pushsection .smp_locks,\22a\22\0A.balign 4\0A.long 671f - .\0A.popsection\0A671:\0A\09lock; andb ${1:b},$0", "=*m,iq,*m,~{dirflag},~{fpsr},~{flags}"(ptr elementtype(i8) %9, i32 -33, ptr elementtype(i8) %9) #5, !srcloc !13
  tail call void asm sideeffect "lock; addl $$0,-4(%rsp)", "~{memory},~{cc},~{dirflag},~{fpsr},~{flags}"() #5, !srcloc !14
  %33 = load volatile i64, ptr %8, align 8
  %34 = and i64 %33, 8
  %35 = icmp eq i64 %34, 0
  br i1 %35, label %37, label %36

36:                                               ; preds = %.loopexit
  tail call void asm "andl $1, %gs:$0", "=*m,ri,*m,~{dirflag},~{fpsr},~{flags}"(ptr nonnull elementtype(i32) getelementptr inbounds (%struct.pcpu_hot, ptr @pcpu_hot, i64 0, i32 0, i32 0, i32 1), i32 2147483647, ptr nonnull elementtype(i32) getelementptr inbounds (%struct.pcpu_hot, ptr @pcpu_hot, i64 0, i32 0, i32 0, i32 1)) #5, !srcloc !15
  br label %37

37:                                               ; preds = %36, %.loopexit
  ret i32 %2
}

; Function Attrs: null_pointer_is_valid
declare dso_local i64 @local_clock_noinstr() local_unnamed_addr #2

; Function Attrs: null_pointer_is_valid
declare dso_local i64 @cpuidle_poll_time(ptr noundef, ptr noundef) local_unnamed_addr #2

; Function Attrs: mustprogress nocallback nofree nounwind willreturn memory(argmem: readwrite)
declare void @llvm.memcpy.p0.p0.i64(ptr noalias nocapture writeonly, ptr noalias nocapture readonly, i64, i1 immarg) #3

; Function Attrs: mustprogress nocallback nofree nounwind willreturn memory(argmem: write)
declare void @llvm.memset.p0.i64(ptr nocapture writeonly, i8, i64, i1 immarg) #4


!llvm.module.flags = !{!0, !1, !2, !3, !4}

!0 = !{i32 1, !"wchar_size", i32 2}
!1 = !{i32 8, !"cf-protection-branch", i32 1}
!2 = !{i32 4, !"function_return_thunk_extern", i32 1}
!3 = !{i32 4, !"indirect_branch_cs_prefix", i32 1}
!4 = !{i32 4, !"SkipRaxSetup", i32 1}
!5 = !{i64 1941357}
!6 = !{i64 2147926636}
!7 = !{i64 2148203931, i64 2148203970, i64 2148203991, i64 2148204028, i64 2148204051, i64 2148203921}
!8 = !{i64 1982288}
!9 = distinct !{!9, !10, !11}
!10 = !{!"llvm.loop.mustprogress"}
!11 = !{!"llvm.loop.unroll.disable"}
!12 = !{i64 1941265}
!13 = !{i64 2148205219, i64 2148205258, i64 2148205279, i64 2148205316, i64 2148205339, i64 2148205209}
!14 = !{i64 2150404864}
!15 = !{i64 2147933328}
